target datalayout = "e-m:e-p270:32:32-p271:32:32-p272:64:64-i64:64-f80:128-n8:16:32:64-S128"
target triple = "x86_64-pc-linux-gnu"

@.str = private unnamed_addr constant [3 x i8] c"%d\00", align 1
@.str.1 = private unnamed_addr constant [3 x i8] c"%s\00", align 1
@.str.2 = private unnamed_addr constant [3 x i8] c"NO\00", align 1
@.str.3 = private unnamed_addr constant [4 x i8] c"%d\0A\00", align 1
@.str.4 = private unnamed_addr constant [4 x i8] c"%s\0A\00", align 1

; Function Attrs: noinline nounwind uwtable
define dso_local void @main() #0 {
  %1 = alloca [501 x i8], align 16
  %2 = alloca [500 x [6 x i8]], align 16
  %3 = alloca i32, align 4
  %4 = alloca i32, align 4
  %5 = alloca i32, align 4
  %6 = alloca i32, align 4
  %7 = alloca [500 x i32], align 16
  %8 = alloca i32, align 4
  %9 = call i32 (i8*, ...) @__isoc99_scanf(i8* getelementptr inbounds ([3 x i8], [3 x i8]* @.str, i64 0, i64 0), i32* %3)
  %10 = getelementptr inbounds [501 x i8], [501 x i8]* %1, i64 0, i64 0
  %11 = call i32 (i8*, ...) @__isoc99_scanf(i8* getelementptr inbounds ([3 x i8], [3 x i8]* @.str.1, i64 0, i64 0), i8* %10)
  %12 = getelementptr inbounds [501 x i8], [501 x i8]* %1, i64 0, i64 0
  %13 = call i64 @strlen(i8* %12) #4
  %14 = trunc i64 %13 to i32
  store i32 %14, i32* %6, align 4
  store i32 0, i32* %4, align 4
  br label %15

15:                                               ; preds = %23, %0
  %16 = load i32, i32* %4, align 4
  %17 = load i32, i32* %6, align 4
  %18 = icmp sle i32 %16, %17
  br i1 %18, label %19, label %26

19:                                               ; preds = %15
  %20 = load i32, i32* %4, align 4
  %21 = sext i32 %20 to i64
  %22 = getelementptr inbounds [500 x i32], [500 x i32]* %7, i64 0, i64 %21
  store i32 1, i32* %22, align 4
  br label %23

23:                                               ; preds = %19
  %24 = load i32, i32* %4, align 4
  %25 = add nsw i32 %24, 1
  store i32 %25, i32* %4, align 4
  br label %15

26:                                               ; preds = %15
  store i32 0, i32* %4, align 4
  br label %27

27:                                               ; preds = %62, %26
  %28 = load i32, i32* %4, align 4
  %29 = load i32, i32* %6, align 4
  %30 = load i32, i32* %3, align 4
  %31 = sub nsw i32 %29, %30
  %32 = icmp sle i32 %28, %31
  br i1 %32, label %33, label %65

33:                                               ; preds = %27
  store i32 0, i32* %5, align 4
  br label %34

34:                                               ; preds = %52, %33
  %35 = load i32, i32* %5, align 4
  %36 = load i32, i32* %3, align 4
  %37 = sub nsw i32 %36, 1
  %38 = icmp sle i32 %35, %37
  br i1 %38, label %39, label %55

39:                                               ; preds = %34
  %40 = load i32, i32* %4, align 4
  %41 = load i32, i32* %5, align 4
  %42 = add nsw i32 %40, %41
  %43 = sext i32 %42 to i64
  %44 = getelementptr inbounds [501 x i8], [501 x i8]* %1, i64 0, i64 %43
  %45 = load i8, i8* %44, align 1
  %46 = load i32, i32* %4, align 4
  %47 = sext i32 %46 to i64
  %48 = getelementptr inbounds [500 x [6 x i8]], [500 x [6 x i8]]* %2, i64 0, i64 %47
  %49 = load i32, i32* %5, align 4
  %50 = sext i32 %49 to i64
  %51 = getelementptr inbounds [6 x i8], [6 x i8]* %48, i64 0, i64 %50
  store i8 %45, i8* %51, align 1
  br label %52

52:                                               ; preds = %39
  %53 = load i32, i32* %5, align 4
  %54 = add nsw i32 %53, 1
  store i32 %54, i32* %5, align 4
  br label %34

55:                                               ; preds = %34
  %56 = load i32, i32* %4, align 4
  %57 = sext i32 %56 to i64
  %58 = getelementptr inbounds [500 x [6 x i8]], [500 x [6 x i8]]* %2, i64 0, i64 %57
  %59 = load i32, i32* %5, align 4
  %60 = sext i32 %59 to i64
  %61 = getelementptr inbounds [6 x i8], [6 x i8]* %58, i64 0, i64 %60
  store i8 0, i8* %61, align 1
  br label %62

62:                                               ; preds = %55
  %63 = load i32, i32* %4, align 4
  %64 = add nsw i32 %63, 1
  store i32 %64, i32* %4, align 4
  br label %27

65:                                               ; preds = %27
  store i32 0, i32* %4, align 4
  br label %66

66:                                               ; preds = %83, %65
  %67 = load i32, i32* %4, align 4
  %68 = load i32, i32* %6, align 4
  %69 = load i32, i32* %3, align 4
  %70 = sub nsw i32 %68, %69
  %71 = sub nsw i32 %70, 1
  %72 = icmp sle i32 %67, %71
  br i1 %72, label %73, label %86

73:                                               ; preds = %66
  %74 = load i32, i32* %4, align 4
  %75 = sext i32 %74 to i64
  %76 = getelementptr inbounds [500 x [6 x i8]], [500 x [6 x i8]]* %2, i64 0, i64 %75
  %77 = getelementptr inbounds [6 x i8], [6 x i8]* %76, i64 0, i64 0
  %78 = load i32, i32* %4, align 4
  %79 = sext i32 %78 to i64
  %80 = getelementptr inbounds [500 x [6 x i8]], [500 x [6 x i8]]* %2, i64 0, i64 %79
  %81 = getelementptr inbounds [6 x i8], [6 x i8]* %80, i64 0, i64 0
  %82 = call i8* @strcpy(i8* %77, i8* %81) #5
  br label %83

83:                                               ; preds = %73
  %84 = load i32, i32* %4, align 4
  %85 = add nsw i32 %84, 1
  store i32 %85, i32* %4, align 4
  br label %66

86:                                               ; preds = %66
  store i32 0, i32* %4, align 4
  br label %87

87:                                               ; preds = %125, %86
  %88 = load i32, i32* %4, align 4
  %89 = load i32, i32* %6, align 4
  %90 = load i32, i32* %3, align 4
  %91 = sub nsw i32 %89, %90
  %92 = sub nsw i32 %91, 1
  %93 = icmp sle i32 %88, %92
  br i1 %93, label %94, label %128

94:                                               ; preds = %87
  %95 = load i32, i32* %4, align 4
  %96 = add nsw i32 %95, 1
  store i32 %96, i32* %5, align 4
  br label %97

97:                                               ; preds = %121, %94
  %98 = load i32, i32* %5, align 4
  %99 = load i32, i32* %6, align 4
  %100 = load i32, i32* %3, align 4
  %101 = sub nsw i32 %99, %100
  %102 = icmp sle i32 %98, %101
  br i1 %102, label %103, label %124

103:                                              ; preds = %97
  %104 = load i32, i32* %4, align 4
  %105 = sext i32 %104 to i64
  %106 = getelementptr inbounds [500 x [6 x i8]], [500 x [6 x i8]]* %2, i64 0, i64 %105
  %107 = getelementptr inbounds [6 x i8], [6 x i8]* %106, i64 0, i64 0
  %108 = load i32, i32* %5, align 4
  %109 = sext i32 %108 to i64
  %110 = getelementptr inbounds [500 x [6 x i8]], [500 x [6 x i8]]* %2, i64 0, i64 %109
  %111 = getelementptr inbounds [6 x i8], [6 x i8]* %110, i64 0, i64 0
  %112 = call i32 @strcmp(i8* %107, i8* %111) #4
  %113 = icmp eq i32 %112, 0
  br i1 %113, label %114, label %120

114:                                              ; preds = %103
  %115 = load i32, i32* %4, align 4
  %116 = sext i32 %115 to i64
  %117 = getelementptr inbounds [500 x i32], [500 x i32]* %7, i64 0, i64 %116
  %118 = load i32, i32* %117, align 4
  %119 = add nsw i32 %118, 1
  store i32 %119, i32* %117, align 4
  br label %120

120:                                              ; preds = %114, %103
  br label %121

121:                                              ; preds = %120
  %122 = load i32, i32* %5, align 4
  %123 = add nsw i32 %122, 1
  store i32 %123, i32* %5, align 4
  br label %97

124:                                              ; preds = %97
  br label %125

125:                                              ; preds = %124
  %126 = load i32, i32* %4, align 4
  %127 = add nsw i32 %126, 1
  store i32 %127, i32* %4, align 4
  br label %87

128:                                              ; preds = %87
  %129 = getelementptr inbounds [500 x i32], [500 x i32]* %7, i64 0, i64 0
  %130 = load i32, i32* %129, align 16
  store i32 %130, i32* %8, align 4
  store i32 1, i32* %4, align 4
  br label %131

131:                                              ; preds = %150, %128
  %132 = load i32, i32* %4, align 4
  %133 = load i32, i32* %6, align 4
  %134 = load i32, i32* %3, align 4
  %135 = sub nsw i32 %133, %134
  %136 = icmp sle i32 %132, %135
  br i1 %136, label %137, label %153

137:                                              ; preds = %131
  %138 = load i32, i32* %4, align 4
  %139 = sext i32 %138 to i64
  %140 = getelementptr inbounds [500 x i32], [500 x i32]* %7, i64 0, i64 %139
  %141 = load i32, i32* %140, align 4
  %142 = load i32, i32* %8, align 4
  %143 = icmp sgt i32 %141, %142
  br i1 %143, label %144, label %149

144:                                              ; preds = %137
  %145 = load i32, i32* %4, align 4
  %146 = sext i32 %145 to i64
  %147 = getelementptr inbounds [500 x i32], [500 x i32]* %7, i64 0, i64 %146
  %148 = load i32, i32* %147, align 4
  store i32 %148, i32* %8, align 4
  br label %149

149:                                              ; preds = %144, %137
  br label %150

150:                                              ; preds = %149
  %151 = load i32, i32* %4, align 4
  %152 = add nsw i32 %151, 1
  store i32 %152, i32* %4, align 4
  br label %131

153:                                              ; preds = %131
  %154 = load i32, i32* %8, align 4
  %155 = icmp eq i32 %154, 1
  br i1 %155, label %156, label %158

156:                                              ; preds = %153
  %157 = call i32 (i8*, ...) @printf(i8* getelementptr inbounds ([3 x i8], [3 x i8]* @.str.2, i64 0, i64 0))
  br label %185

158:                                              ; preds = %153
  %159 = load i32, i32* %8, align 4
  %160 = call i32 (i8*, ...) @printf(i8* getelementptr inbounds ([4 x i8], [4 x i8]* @.str.3, i64 0, i64 0), i32 %159)
  store i32 0, i32* %4, align 4
  br label %161

161:                                              ; preds = %181, %158
  %162 = load i32, i32* %4, align 4
  %163 = load i32, i32* %6, align 4
  %164 = load i32, i32* %3, align 4
  %165 = sub nsw i32 %163, %164
  %166 = icmp sle i32 %162, %165
  br i1 %166, label %167, label %184

167:                                              ; preds = %161
  %168 = load i32, i32* %4, align 4
  %169 = sext i32 %168 to i64
  %170 = getelementptr inbounds [500 x i32], [500 x i32]* %7, i64 0, i64 %169
  %171 = load i32, i32* %170, align 4
  %172 = load i32, i32* %8, align 4
  %173 = icmp eq i32 %171, %172
  br i1 %173, label %174, label %180

174:                                              ; preds = %167
  %175 = load i32, i32* %4, align 4
  %176 = sext i32 %175 to i64
  %177 = getelementptr inbounds [500 x [6 x i8]], [500 x [6 x i8]]* %2, i64 0, i64 %176
  %178 = getelementptr inbounds [6 x i8], [6 x i8]* %177, i64 0, i64 0
  %179 = call i32 (i8*, ...) @printf(i8* getelementptr inbounds ([4 x i8], [4 x i8]* @.str.4, i64 0, i64 0), i8* %178)
  br label %180

180:                                              ; preds = %174, %167
  br label %181

181:                                              ; preds = %180
  %182 = load i32, i32* %4, align 4
  %183 = add nsw i32 %182, 1
  store i32 %183, i32* %4, align 4
  br label %161

184:                                              ; preds = %161
  br label %185

185:                                              ; preds = %184, %156
  ret void
}